target datalayout = "e-m:e-p270:32:32-p271:32:32-p272:64:64-i64:64-i128:128-f80:128-n8:16:32:64-S128"
target triple = "x86_64-pc-linux-gnu"

@.str.24 = private unnamed_addr constant [28 x i8] c"../openssl/test/test_test.c\00", align 1
@.str.29 = private unnamed_addr constant [2 x i8] c"2\00", align 1
@stderr = external global ptr, align 8
@.str.47 = private unnamed_addr constant [19 x i8] c"# FATAL: %s != %d\0A\00", align 1
@.str.94 = private unnamed_addr constant [22 x i8] c"TEST_uchar_eq(49, 49)\00", align 1
@.str.95 = private unnamed_addr constant [3 x i8] c"49\00", align 1
@.str.96 = private unnamed_addr constant [22 x i8] c"TEST_uchar_eq(49, 60)\00", align 1
@.str.97 = private unnamed_addr constant [3 x i8] c"60\00", align 1
@.str.98 = private unnamed_addr constant [21 x i8] c"TEST_uchar_ne(50, 2)\00", align 1
@.str.99 = private unnamed_addr constant [3 x i8] c"50\00", align 1
@.str.100 = private unnamed_addr constant [22 x i8] c"TEST_uchar_ne(66, 66)\00", align 1
@.str.101 = private unnamed_addr constant [3 x i8] c"66\00", align 1
@.str.102 = private unnamed_addr constant [22 x i8] c"TEST_uchar_lt(60, 80)\00", align 1
@.str.103 = private unnamed_addr constant [3 x i8] c"80\00", align 1
@.str.104 = private unnamed_addr constant [22 x i8] c"TEST_uchar_lt(80, 60)\00", align 1
@.str.105 = private unnamed_addr constant [22 x i8] c"TEST_uchar_le(60, 80)\00", align 1
@.str.106 = private unnamed_addr constant [22 x i8] c"TEST_uchar_le(78, 78)\00", align 1
@.str.107 = private unnamed_addr constant [3 x i8] c"78\00", align 1
@.str.108 = private unnamed_addr constant [22 x i8] c"TEST_uchar_le(80, 60)\00", align 1
@.str.109 = private unnamed_addr constant [22 x i8] c"TEST_uchar_gt(88, 37)\00", align 1
@.str.110 = private unnamed_addr constant [3 x i8] c"88\00", align 1
@.str.111 = private unnamed_addr constant [3 x i8] c"37\00", align 1
@.str.112 = private unnamed_addr constant [22 x i8] c"TEST_uchar_gt(37, 88)\00", align 1
@.str.113 = private unnamed_addr constant [22 x i8] c"TEST_uchar_ge(88, 37)\00", align 1
@.str.114 = private unnamed_addr constant [22 x i8] c"TEST_uchar_ge(66, 66)\00", align 1
@.str.115 = private unnamed_addr constant [22 x i8] c"TEST_uchar_ge(37, 88)\00", align 1

; Function Attrs: nounwind uwtable
define internal i32 @test_case(i32 noundef %0, ptr noundef %1, i32 noundef %2) #0 {
  %4 = alloca i32, align 4
  %5 = alloca i32, align 4
  %6 = alloca ptr, align 8
  %7 = alloca i32, align 4
  store i32 %0, ptr %5, align 4, !tbaa !4
  store ptr %1, ptr %6, align 8, !tbaa !9
  store i32 %2, ptr %7, align 4, !tbaa !4
  %8 = load i32, ptr %7, align 4, !tbaa !4
  %9 = load i32, ptr %5, align 4, !tbaa !4
  %10 = icmp ne i32 %8, %9
  br i1 %10, label %11, label %16

11:                                               ; preds = %3
  %12 = load ptr, ptr @stderr, align 8, !tbaa !16
  %13 = load ptr, ptr %6, align 8, !tbaa !9
  %14 = load i32, ptr %5, align 4, !tbaa !4
  %15 = call i32 (ptr, ptr, ...) @fprintf(ptr noundef %12, ptr noundef @.str.47, ptr noundef %13, i32 noundef %14) #7
  store i32 0, ptr %4, align 4
  br label %17

16:                                               ; preds = %3
  store i32 1, ptr %4, align 4
  br label %17

17:                                               ; preds = %16, %11
  %18 = load i32, ptr %4, align 4
  ret i32 %18
}

; Function Attrs: nounwind uwtable
define internal i32 @test_uchar() #0 {
  %1 = alloca i32, align 4
  %2 = call i32 @test_uchar_eq(ptr noundef @.str.24, i32 noundef 104, ptr noundef @.str.95, ptr noundef @.str.95, i8 noundef zeroext 49, i8 noundef zeroext 49)
  %3 = call i32 @test_case(i32 noundef 1, ptr noundef @.str.94, i32 noundef %2)
  %4 = icmp ne i32 %3, 0
  br i1 %4, label %5, label %57

5:                                                ; preds = %0
  %6 = call i32 @test_uchar_eq(ptr noundef @.str.24, i32 noundef 105, ptr noundef @.str.95, ptr noundef @.str.97, i8 noundef zeroext 49, i8 noundef zeroext 60)
  %7 = call i32 @test_case(i32 noundef 0, ptr noundef @.str.96, i32 noundef %6)
  %8 = icmp ne i32 %7, 0
  br i1 %8, label %9, label %57

9:                                                ; preds = %5
  %10 = call i32 @test_uchar_ne(ptr noundef @.str.24, i32 noundef 106, ptr noundef @.str.99, ptr noundef @.str.29, i8 noundef zeroext 50, i8 noundef zeroext 2)
  %11 = call i32 @test_case(i32 noundef 1, ptr noundef @.str.98, i32 noundef %10)
  %12 = icmp ne i32 %11, 0
  br i1 %12, label %13, label %57

13:                                               ; preds = %9
  %14 = call i32 @test_uchar_ne(ptr noundef @.str.24, i32 noundef 107, ptr noundef @.str.101, ptr noundef @.str.101, i8 noundef zeroext 66, i8 noundef zeroext 66)
  %15 = call i32 @test_case(i32 noundef 0, ptr noundef @.str.100, i32 noundef %14)
  %16 = icmp ne i32 %15, 0
  br i1 %16, label %17, label %57

17:                                               ; preds = %13
  %18 = call i32 @test_uchar_lt(ptr noundef @.str.24, i32 noundef 108, ptr noundef @.str.97, ptr noundef @.str.103, i8 noundef zeroext 60, i8 noundef zeroext 80)
  %19 = call i32 @test_case(i32 noundef 1, ptr noundef @.str.102, i32 noundef %18)
  %20 = icmp ne i32 %19, 0
  br i1 %20, label %21, label %57

21:                                               ; preds = %17
  %22 = call i32 @test_uchar_lt(ptr noundef @.str.24, i32 noundef 109, ptr noundef @.str.103, ptr noundef @.str.97, i8 noundef zeroext 80, i8 noundef zeroext 60)
  %23 = call i32 @test_case(i32 noundef 0, ptr noundef @.str.104, i32 noundef %22)
  %24 = icmp ne i32 %23, 0
  br i1 %24, label %25, label %57

25:                                               ; preds = %21
  %26 = call i32 @test_uchar_le(ptr noundef @.str.24, i32 noundef 110, ptr noundef @.str.97, ptr noundef @.str.103, i8 noundef zeroext 60, i8 noundef zeroext 80)
  %27 = call i32 @test_case(i32 noundef 1, ptr noundef @.str.105, i32 noundef %26)
  %28 = icmp ne i32 %27, 0
  br i1 %28, label %29, label %57

29:                                               ; preds = %25
  %30 = call i32 @test_uchar_le(ptr noundef @.str.24, i32 noundef 111, ptr noundef @.str.107, ptr noundef @.str.107, i8 noundef zeroext 78, i8 noundef zeroext 78)
  %31 = call i32 @test_case(i32 noundef 1, ptr noundef @.str.106, i32 noundef %30)
  %32 = icmp ne i32 %31, 0
  br i1 %32, label %33, label %57

33:                                               ; preds = %29
  %34 = call i32 @test_uchar_le(ptr noundef @.str.24, i32 noundef 112, ptr noundef @.str.103, ptr noundef @.str.97, i8 noundef zeroext 80, i8 noundef zeroext 60)
  %35 = call i32 @test_case(i32 noundef 0, ptr noundef @.str.108, i32 noundef %34)
  %36 = icmp ne i32 %35, 0
  br i1 %36, label %37, label %57

37:                                               ; preds = %33
  %38 = call i32 @test_uchar_gt(ptr noundef @.str.24, i32 noundef 113, ptr noundef @.str.110, ptr noundef @.str.111, i8 noundef zeroext 88, i8 noundef zeroext 37)
  %39 = call i32 @test_case(i32 noundef 1, ptr noundef @.str.109, i32 noundef %38)
  %40 = icmp ne i32 %39, 0
  br i1 %40, label %41, label %57

41:                                               ; preds = %37
  %42 = call i32 @test_uchar_gt(ptr noundef @.str.24, i32 noundef 114, ptr noundef @.str.111, ptr noundef @.str.110, i8 noundef zeroext 37, i8 noundef zeroext 88)
  %43 = call i32 @test_case(i32 noundef 0, ptr noundef @.str.112, i32 noundef %42)
  %44 = icmp ne i32 %43, 0
  br i1 %44, label %45, label %57

45:                                               ; preds = %41
  %46 = call i32 @test_uchar_ge(ptr noundef @.str.24, i32 noundef 115, ptr noundef @.str.110, ptr noundef @.str.111, i8 noundef zeroext 88, i8 noundef zeroext 37)
  %47 = call i32 @test_case(i32 noundef 1, ptr noundef @.str.113, i32 noundef %46)
  %48 = icmp ne i32 %47, 0
  br i1 %48, label %49, label %57

49:                                               ; preds = %45
  %50 = call i32 @test_uchar_ge(ptr noundef @.str.24, i32 noundef 116, ptr noundef @.str.101, ptr noundef @.str.101, i8 noundef zeroext 66, i8 noundef zeroext 66)
  %51 = call i32 @test_case(i32 noundef 1, ptr noundef @.str.114, i32 noundef %50)
  %52 = icmp ne i32 %51, 0
  br i1 %52, label %53, label %57

53:                                               ; preds = %49
  %54 = call i32 @test_uchar_ge(ptr noundef @.str.24, i32 noundef 117, ptr noundef @.str.111, ptr noundef @.str.110, i8 noundef zeroext 37, i8 noundef zeroext 88)
  %55 = call i32 @test_case(i32 noundef 0, ptr noundef @.str.115, i32 noundef %54)
  %56 = icmp ne i32 %55, 0
  br i1 %56, label %58, label %57

57:                                               ; preds = %53, %49, %45, %41, %37, %33, %29, %25, %21, %17, %13, %9, %5, %0
  br label %59

58:                                               ; preds = %53
  store i32 1, ptr %1, align 4
  br label %60

59:                                               ; preds = %57
  store i32 0, ptr %1, align 4
  br label %60

60:                                               ; preds = %59, %58
  %61 = load i32, ptr %1, align 4
  ret i32 %61
}